target datalayout = "e-m:e-p270:32:32-p271:32:32-p272:64:64-i64:64-i128:128-f80:128-n8:16:32:64-S128"
target triple = "x86_64-pc-linux-gnu"

; Function Attrs: nounwind uwtable
define i32 @wolfSSL_get_cipher_suite_from_name(ptr noundef %0, ptr noundef %1, ptr noundef %2, ptr noundef %3) #0 {
  %5 = alloca i32, align 4
  %6 = alloca ptr, align 8
  %7 = alloca ptr, align 8
  %8 = alloca ptr, align 8
  %9 = alloca ptr, align 8
  store ptr %0, ptr %6, align 8, !tbaa !21
  store ptr %1, ptr %7, align 8, !tbaa !21
  store ptr %2, ptr %8, align 8, !tbaa !21
  store ptr %3, ptr %9, align 8, !tbaa !92
  %10 = load ptr, ptr %6, align 8, !tbaa !21
  %11 = icmp eq ptr %10, null
  br i1 %11, label %21, label %12

12:                                               ; preds = %4
  %13 = load ptr, ptr %7, align 8, !tbaa !21
  %14 = icmp eq ptr %13, null
  br i1 %14, label %21, label %15

15:                                               ; preds = %12
  %16 = load ptr, ptr %8, align 8, !tbaa !21
  %17 = icmp eq ptr %16, null
  br i1 %17, label %21, label %18

18:                                               ; preds = %15
  %19 = load ptr, ptr %9, align 8, !tbaa !92
  %20 = icmp eq ptr %19, null
  br i1 %20, label %21, label %22

21:                                               ; preds = %18, %15, %12, %4
  store i32 -173, ptr %5, align 4
  br label %28

22:                                               ; preds = %18
  %23 = load ptr, ptr %6, align 8, !tbaa !21
  %24 = load ptr, ptr %7, align 8, !tbaa !21
  %25 = load ptr, ptr %8, align 8, !tbaa !21
  %26 = load ptr, ptr %9, align 8, !tbaa !92
  %27 = call i32 @GetCipherSuiteFromName(ptr noundef %23, ptr noundef %24, ptr noundef %25, ptr noundef null, ptr noundef null, ptr noundef %26)
  store i32 %27, ptr %5, align 4
  br label %28

28:                                               ; preds = %22, %21
  %29 = load i32, ptr %5, align 4
  ret i32 %29
}