; Function Attrs: nounwind uwtable
define i32 @wolfSSL_get_cipher_suite_from_name(ptr noundef %0, ptr noundef %1, ptr noundef %2, ptr noundef %3) local_unnamed_addr #0 {
  %5 = icmp eq ptr %0, null
  %6 = icmp eq ptr %1, null
  %or.cond = or i1 %5, %6
  %7 = icmp eq ptr %2, null
  %or.cond3 = or i1 %or.cond, %7
  %8 = icmp eq ptr %3, null
  %or.cond5 = or i1 %or.cond3, %8
  br i1 %or.cond5, label %11, label %9

9:                                                ; preds = %4
  %10 = tail call i32 @GetCipherSuiteFromName(ptr noundef nonnull %0, ptr noundef nonnull %1, ptr noundef nonnull %2, ptr noundef null, ptr noundef null, ptr noundef nonnull %3) #22
  br label %11

11:                                               ; preds = %4, %9
  %.0 = phi i32 [ %10, %9 ], [ -173, %4 ]
  ret i32 %.0
}